target datalayout = "e-m:e-p270:32:32-p271:32:32-p272:64:64-i64:64-i128:128-f80:128-n8:16:32:64-S128"
target triple = "x86_64-pc-linux-gnu"

%struct.TValue = type { %union.Value, i8 }
%union.Value = type { ptr }
%struct.lua_State = type { ptr, i8, i8, i8, i8, i16, %union.StkIdRel, ptr, ptr, %union.StkIdRel, %union.StkIdRel, ptr, %union.StkIdRel, ptr, ptr, ptr, %struct.CallInfo, ptr, i64, i32, i32, i32, i32, i32, %struct.anon.3 }
%union.StkIdRel = type { ptr }
%struct.CallInfo = type { %union.StkIdRel, %union.StkIdRel, ptr, ptr, %union.anon.0, %union.anon.2, i32 }
%union.anon.0 = type { %struct.anon.1 }
%struct.anon.1 = type { ptr, i64, i64 }
%union.anon.2 = type { i32 }
%struct.anon.3 = type { i32, i32 }
%union.StackValue = type { %struct.TValue }
%struct.anon = type { ptr, i32, i32 }

; Function Attrs: nounwind uwtable
define hidden void @luaV_finishOp(ptr noundef %0) #0 {
  %2 = alloca ptr, align 8
  %3 = alloca ptr, align 8
  %4 = alloca ptr, align 8
  %5 = alloca i32, align 4
  %6 = alloca i32, align 4
  %7 = alloca ptr, align 8
  %8 = alloca ptr, align 8
  %9 = alloca ptr, align 8
  %10 = alloca ptr, align 8
  %11 = alloca i32, align 4
  %12 = alloca ptr, align 8
  %13 = alloca i32, align 4
  %14 = alloca i32, align 4
  %15 = alloca ptr, align 8
  %16 = alloca ptr, align 8
  %17 = alloca ptr, align 8
  store ptr %0, ptr %2, align 8, !tbaa !32
  call void @llvm.lifetime.start.p0(i64 8, ptr %3) #10
  %18 = load ptr, ptr %2, align 8, !tbaa !32
  %19 = getelementptr inbounds nuw %struct.lua_State, ptr %18, i32 0, i32 8
  %20 = load ptr, ptr %19, align 8, !tbaa !58
  store ptr %20, ptr %3, align 8, !tbaa !59
  call void @llvm.lifetime.start.p0(i64 8, ptr %4) #10
  %21 = load ptr, ptr %3, align 8, !tbaa !59
  %22 = getelementptr inbounds nuw %struct.CallInfo, ptr %21, i32 0, i32 0
  %23 = load ptr, ptr %22, align 8, !tbaa !13
  %24 = getelementptr inbounds %union.StackValue, ptr %23, i64 1
  store ptr %24, ptr %4, align 8, !tbaa !34
  call void @llvm.lifetime.start.p0(i64 4, ptr %5) #10
  %25 = load ptr, ptr %3, align 8, !tbaa !59
  %26 = getelementptr inbounds nuw %struct.CallInfo, ptr %25, i32 0, i32 4
  %27 = getelementptr inbounds nuw %struct.anon, ptr %26, i32 0, i32 0
  %28 = load ptr, ptr %27, align 8, !tbaa !13
  %29 = getelementptr inbounds i32, ptr %28, i64 -1
  %30 = load i32, ptr %29, align 4, !tbaa !29
  store i32 %30, ptr %5, align 4, !tbaa !29
  call void @llvm.lifetime.start.p0(i64 4, ptr %6) #10
  %31 = load i32, ptr %5, align 4, !tbaa !29
  %32 = lshr i32 %31, 0
  %33 = and i32 %32, 127
  store i32 %33, ptr %6, align 4, !tbaa !29
  %34 = load i32, ptr %6, align 4, !tbaa !29
  switch i32 %34, label %182 [
    i32 46, label %35
    i32 47, label %35
    i32 48, label %35
    i32 49, label %60
    i32 50, label %60
    i32 52, label %60
    i32 11, label %60
    i32 12, label %60
    i32 13, label %60
    i32 14, label %60
    i32 20, label %60
    i32 58, label %80
    i32 59, label %80
    i32 62, label %80
    i32 63, label %80
    i32 64, label %80
    i32 65, label %80
    i32 57, label %80
    i32 53, label %119
    i32 54, label %156
    i32 70, label %162
  ]

35:                                               ; preds = %1, %1, %1
  call void @llvm.lifetime.start.p0(i64 8, ptr %7) #10
  %36 = load ptr, ptr %4, align 8, !tbaa !34
  %37 = load ptr, ptr %3, align 8, !tbaa !59
  %38 = getelementptr inbounds nuw %struct.CallInfo, ptr %37, i32 0, i32 4
  %39 = getelementptr inbounds nuw %struct.anon, ptr %38, i32 0, i32 0
  %40 = load ptr, ptr %39, align 8, !tbaa !13
  %41 = getelementptr inbounds i32, ptr %40, i64 -2
  %42 = load i32, ptr %41, align 4, !tbaa !29
  %43 = lshr i32 %42, 7
  %44 = and i32 %43, 255
  %45 = sext i32 %44 to i64
  %46 = getelementptr inbounds %union.StackValue, ptr %36, i64 %45
  store ptr %46, ptr %7, align 8, !tbaa !4
  call void @llvm.lifetime.start.p0(i64 8, ptr %8) #10
  %47 = load ptr, ptr %2, align 8, !tbaa !32
  %48 = getelementptr inbounds nuw %struct.lua_State, ptr %47, i32 0, i32 6
  %49 = load ptr, ptr %48, align 8, !tbaa !13
  %50 = getelementptr inbounds %union.StackValue, ptr %49, i32 -1
  store ptr %50, ptr %48, align 8, !tbaa !13
  store ptr %50, ptr %8, align 8, !tbaa !4
  %51 = load ptr, ptr %7, align 8, !tbaa !4
  %52 = getelementptr inbounds nuw %struct.TValue, ptr %51, i32 0, i32 0
  %53 = load ptr, ptr %8, align 8, !tbaa !4
  %54 = getelementptr inbounds nuw %struct.TValue, ptr %53, i32 0, i32 0
  call void @llvm.memcpy.p0.p0.i64(ptr align 8 %52, ptr align 8 %54, i64 8, i1 false), !tbaa.struct !56
  %55 = load ptr, ptr %8, align 8, !tbaa !4
  %56 = getelementptr inbounds nuw %struct.TValue, ptr %55, i32 0, i32 1
  %57 = load i8, ptr %56, align 8, !tbaa !11
  %58 = load ptr, ptr %7, align 8, !tbaa !4
  %59 = getelementptr inbounds nuw %struct.TValue, ptr %58, i32 0, i32 1
  store i8 %57, ptr %59, align 8, !tbaa !11
  call void @llvm.lifetime.end.p0(i64 8, ptr %8) #10
  call void @llvm.lifetime.end.p0(i64 8, ptr %7) #10
  br label %183

60:                                               ; preds = %1, %1, %1, %1, %1, %1, %1, %1
  call void @llvm.lifetime.start.p0(i64 8, ptr %9) #10
  %61 = load ptr, ptr %4, align 8, !tbaa !34
  %62 = load i32, ptr %5, align 4, !tbaa !29
  %63 = lshr i32 %62, 7
  %64 = and i32 %63, 255
  %65 = sext i32 %64 to i64
  %66 = getelementptr inbounds %union.StackValue, ptr %61, i64 %65
  store ptr %66, ptr %9, align 8, !tbaa !4
  call void @llvm.lifetime.start.p0(i64 8, ptr %10) #10
  %67 = load ptr, ptr %2, align 8, !tbaa !32
  %68 = getelementptr inbounds nuw %struct.lua_State, ptr %67, i32 0, i32 6
  %69 = load ptr, ptr %68, align 8, !tbaa !13
  %70 = getelementptr inbounds %union.StackValue, ptr %69, i32 -1
  store ptr %70, ptr %68, align 8, !tbaa !13
  store ptr %70, ptr %10, align 8, !tbaa !4
  %71 = load ptr, ptr %9, align 8, !tbaa !4
  %72 = getelementptr inbounds nuw %struct.TValue, ptr %71, i32 0, i32 0
  %73 = load ptr, ptr %10, align 8, !tbaa !4
  %74 = getelementptr inbounds nuw %struct.TValue, ptr %73, i32 0, i32 0
  call void @llvm.memcpy.p0.p0.i64(ptr align 8 %72, ptr align 8 %74, i64 8, i1 false), !tbaa.struct !56
  %75 = load ptr, ptr %10, align 8, !tbaa !4
  %76 = getelementptr inbounds nuw %struct.TValue, ptr %75, i32 0, i32 1
  %77 = load i8, ptr %76, align 8, !tbaa !11
  %78 = load ptr, ptr %9, align 8, !tbaa !4
  %79 = getelementptr inbounds nuw %struct.TValue, ptr %78, i32 0, i32 1
  store i8 %77, ptr %79, align 8, !tbaa !11
  call void @llvm.lifetime.end.p0(i64 8, ptr %10) #10
  call void @llvm.lifetime.end.p0(i64 8, ptr %9) #10
  br label %183

80:                                               ; preds = %1, %1, %1, %1, %1, %1, %1
  call void @llvm.lifetime.start.p0(i64 4, ptr %11) #10
  %81 = load ptr, ptr %2, align 8, !tbaa !32
  %82 = getelementptr inbounds nuw %struct.lua_State, ptr %81, i32 0, i32 6
  %83 = load ptr, ptr %82, align 8, !tbaa !13
  %84 = getelementptr inbounds %union.StackValue, ptr %83, i64 -1
  %85 = getelementptr inbounds nuw %struct.TValue, ptr %84, i32 0, i32 1
  %86 = load i8, ptr %85, align 8, !tbaa !13
  %87 = zext i8 %86 to i32
  %88 = icmp eq i32 %87, 1
  br i1 %88, label %99, label %89

89:                                               ; preds = %80
  %90 = load ptr, ptr %2, align 8, !tbaa !32
  %91 = getelementptr inbounds nuw %struct.lua_State, ptr %90, i32 0, i32 6
  %92 = load ptr, ptr %91, align 8, !tbaa !13
  %93 = getelementptr inbounds %union.StackValue, ptr %92, i64 -1
  %94 = getelementptr inbounds nuw %struct.TValue, ptr %93, i32 0, i32 1
  %95 = load i8, ptr %94, align 8, !tbaa !13
  %96 = zext i8 %95 to i32
  %97 = and i32 %96, 15
  %98 = icmp eq i32 %97, 0
  br label %99

99:                                               ; preds = %89, %80
  %100 = phi i1 [ true, %80 ], [ %98, %89 ]
  %101 = xor i1 %100, true
  %102 = zext i1 %101 to i32
  store i32 %102, ptr %11, align 4, !tbaa !29
  %103 = load ptr, ptr %2, align 8, !tbaa !32
  %104 = getelementptr inbounds nuw %struct.lua_State, ptr %103, i32 0, i32 6
  %105 = load ptr, ptr %104, align 8, !tbaa !13
  %106 = getelementptr inbounds %union.StackValue, ptr %105, i32 -1
  store ptr %106, ptr %104, align 8, !tbaa !13
  %107 = load i32, ptr %11, align 4, !tbaa !29
  %108 = load i32, ptr %5, align 4, !tbaa !29
  %109 = lshr i32 %108, 15
  %110 = and i32 %109, 1
  %111 = icmp ne i32 %107, %110
  br i1 %111, label %112, label %118

112:                                              ; preds = %99
  %113 = load ptr, ptr %3, align 8, !tbaa !59
  %114 = getelementptr inbounds nuw %struct.CallInfo, ptr %113, i32 0, i32 4
  %115 = getelementptr inbounds nuw %struct.anon, ptr %114, i32 0, i32 0
  %116 = load ptr, ptr %115, align 8, !tbaa !13
  %117 = getelementptr inbounds nuw i32, ptr %116, i32 1
  store ptr %117, ptr %115, align 8, !tbaa !13
  br label %118

118:                                              ; preds = %112, %99
  call void @llvm.lifetime.end.p0(i64 4, ptr %11) #10
  br label %183

119:                                              ; preds = %1
  call void @llvm.lifetime.start.p0(i64 8, ptr %12) #10
  %120 = load ptr, ptr %2, align 8, !tbaa !32
  %121 = getelementptr inbounds nuw %struct.lua_State, ptr %120, i32 0, i32 6
  %122 = load ptr, ptr %121, align 8, !tbaa !13
  %123 = getelementptr inbounds %union.StackValue, ptr %122, i64 -1
  store ptr %123, ptr %12, align 8, !tbaa !34
  call void @llvm.lifetime.start.p0(i64 4, ptr %13) #10
  %124 = load i32, ptr %5, align 4, !tbaa !29
  %125 = lshr i32 %124, 7
  %126 = and i32 %125, 255
  store i32 %126, ptr %13, align 4, !tbaa !29
  call void @llvm.lifetime.start.p0(i64 4, ptr %14) #10
  %127 = load ptr, ptr %12, align 8, !tbaa !34
  %128 = getelementptr inbounds %union.StackValue, ptr %127, i64 -1
  %129 = load ptr, ptr %4, align 8, !tbaa !34
  %130 = load i32, ptr %13, align 4, !tbaa !29
  %131 = sext i32 %130 to i64
  %132 = getelementptr inbounds %union.StackValue, ptr %129, i64 %131
  %133 = ptrtoint ptr %128 to i64
  %134 = ptrtoint ptr %132 to i64
  %135 = sub i64 %133, %134
  %136 = sdiv exact i64 %135, 16
  %137 = trunc i64 %136 to i32
  store i32 %137, ptr %14, align 4, !tbaa !29
  call void @llvm.lifetime.start.p0(i64 8, ptr %15) #10
  %138 = load ptr, ptr %12, align 8, !tbaa !34
  %139 = getelementptr inbounds %union.StackValue, ptr %138, i64 -2
  store ptr %139, ptr %15, align 8, !tbaa !4
  call void @llvm.lifetime.start.p0(i64 8, ptr %16) #10
  %140 = load ptr, ptr %12, align 8, !tbaa !34
  store ptr %140, ptr %16, align 8, !tbaa !4
  %141 = load ptr, ptr %15, align 8, !tbaa !4
  %142 = getelementptr inbounds nuw %struct.TValue, ptr %141, i32 0, i32 0
  %143 = load ptr, ptr %16, align 8, !tbaa !4
  %144 = getelementptr inbounds nuw %struct.TValue, ptr %143, i32 0, i32 0
  call void @llvm.memcpy.p0.p0.i64(ptr align 8 %142, ptr align 8 %144, i64 8, i1 false), !tbaa.struct !56
  %145 = load ptr, ptr %16, align 8, !tbaa !4
  %146 = getelementptr inbounds nuw %struct.TValue, ptr %145, i32 0, i32 1
  %147 = load i8, ptr %146, align 8, !tbaa !11
  %148 = load ptr, ptr %15, align 8, !tbaa !4
  %149 = getelementptr inbounds nuw %struct.TValue, ptr %148, i32 0, i32 1
  store i8 %147, ptr %149, align 8, !tbaa !11
  call void @llvm.lifetime.end.p0(i64 8, ptr %16) #10
  call void @llvm.lifetime.end.p0(i64 8, ptr %15) #10
  %150 = load ptr, ptr %12, align 8, !tbaa !34
  %151 = getelementptr inbounds %union.StackValue, ptr %150, i64 -1
  %152 = load ptr, ptr %2, align 8, !tbaa !32
  %153 = getelementptr inbounds nuw %struct.lua_State, ptr %152, i32 0, i32 6
  store ptr %151, ptr %153, align 8, !tbaa !13
  %154 = load ptr, ptr %2, align 8, !tbaa !32
  %155 = load i32, ptr %14, align 4, !tbaa !29
  call void @luaV_concat(ptr noundef %154, i32 noundef %155)
  call void @llvm.lifetime.end.p0(i64 4, ptr %14) #10
  call void @llvm.lifetime.end.p0(i64 4, ptr %13) #10
  call void @llvm.lifetime.end.p0(i64 8, ptr %12) #10
  br label %183

156:                                              ; preds = %1
  %157 = load ptr, ptr %3, align 8, !tbaa !59
  %158 = getelementptr inbounds nuw %struct.CallInfo, ptr %157, i32 0, i32 4
  %159 = getelementptr inbounds nuw %struct.anon, ptr %158, i32 0, i32 0
  %160 = load ptr, ptr %159, align 8, !tbaa !13
  %161 = getelementptr inbounds i32, ptr %160, i32 -1
  store ptr %161, ptr %159, align 8, !tbaa !13
  br label %183

162:                                              ; preds = %1
  call void @llvm.lifetime.start.p0(i64 8, ptr %17) #10
  %163 = load ptr, ptr %4, align 8, !tbaa !34
  %164 = load i32, ptr %5, align 4, !tbaa !29
  %165 = lshr i32 %164, 7
  %166 = and i32 %165, 255
  %167 = sext i32 %166 to i64
  %168 = getelementptr inbounds %union.StackValue, ptr %163, i64 %167
  store ptr %168, ptr %17, align 8, !tbaa !34
  %169 = load ptr, ptr %17, align 8, !tbaa !34
  %170 = load ptr, ptr %3, align 8, !tbaa !59
  %171 = getelementptr inbounds nuw %struct.CallInfo, ptr %170, i32 0, i32 5
  %172 = load i32, ptr %171, align 8, !tbaa !13
  %173 = sext i32 %172 to i64
  %174 = getelementptr inbounds %union.StackValue, ptr %169, i64 %173
  %175 = load ptr, ptr %2, align 8, !tbaa !32
  %176 = getelementptr inbounds nuw %struct.lua_State, ptr %175, i32 0, i32 6
  store ptr %174, ptr %176, align 8, !tbaa !13
  %177 = load ptr, ptr %3, align 8, !tbaa !59
  %178 = getelementptr inbounds nuw %struct.CallInfo, ptr %177, i32 0, i32 4
  %179 = getelementptr inbounds nuw %struct.anon, ptr %178, i32 0, i32 0
  %180 = load ptr, ptr %179, align 8, !tbaa !13
  %181 = getelementptr inbounds i32, ptr %180, i32 -1
  store ptr %181, ptr %179, align 8, !tbaa !13
  call void @llvm.lifetime.end.p0(i64 8, ptr %17) #10
  br label %183

182:                                              ; preds = %1
  br label %183

183:                                              ; preds = %182, %162, %156, %119, %118, %60, %35
  call void @llvm.lifetime.end.p0(i64 4, ptr %6) #10
  call void @llvm.lifetime.end.p0(i64 4, ptr %5) #10
  call void @llvm.lifetime.end.p0(i64 8, ptr %4) #10
  call void @llvm.lifetime.end.p0(i64 8, ptr %3) #10
  ret void
}