; Function Attrs: nounwind uwtable
define hidden void @luaV_finishOp(ptr noundef %0) local_unnamed_addr #0 {
  %2 = getelementptr inbounds nuw i8, ptr %0, i64 32
  %3 = load ptr, ptr %2, align 8, !tbaa !47
  %4 = load ptr, ptr %3, align 8, !tbaa !8
  %5 = getelementptr inbounds nuw i8, ptr %4, i64 16
  %6 = getelementptr inbounds nuw i8, ptr %3, i64 32
  %7 = load ptr, ptr %6, align 8, !tbaa !8
  %8 = getelementptr inbounds i8, ptr %7, i64 -4
  %9 = load i32, ptr %8, align 4, !tbaa !46
  %10 = and i32 %9, 127
  switch i32 %10, label %83 [
    i32 46, label %11
    i32 47, label %11
    i32 48, label %11
    i32 49, label %25
    i32 50, label %25
    i32 52, label %25
    i32 11, label %25
    i32 12, label %25
    i32 13, label %25
    i32 14, label %25
    i32 20, label %25
    i32 58, label %37
    i32 59, label %37
    i32 62, label %37
    i32 63, label %37
    i32 64, label %37
    i32 65, label %37
    i32 57, label %37
    i32 53, label %51
    i32 54, label %70
    i32 70, label %71
  ]

11:                                               ; preds = %1, %1, %1
  %12 = getelementptr inbounds i8, ptr %7, i64 -8
  %13 = load i32, ptr %12, align 4, !tbaa !46
  %14 = lshr i32 %13, 7
  %15 = and i32 %14, 255
  %16 = zext nneg i32 %15 to i64
  %17 = getelementptr inbounds nuw %union.StackValue, ptr %5, i64 %16
  %18 = getelementptr inbounds nuw i8, ptr %0, i64 16
  %19 = load ptr, ptr %18, align 8, !tbaa !8
  %20 = getelementptr inbounds i8, ptr %19, i64 -16
  store ptr %20, ptr %18, align 8, !tbaa !8
  %21 = load i64, ptr %20, align 8, !tbaa !8
  store i64 %21, ptr %17, align 8, !tbaa !8
  %22 = getelementptr inbounds i8, ptr %19, i64 -8
  %23 = load i8, ptr %22, align 8, !tbaa !4
  %24 = getelementptr inbounds nuw i8, ptr %17, i64 8
  store i8 %23, ptr %24, align 8, !tbaa !4
  br label %83

25:                                               ; preds = %1, %1, %1, %1, %1, %1, %1, %1
  %26 = lshr i32 %9, 7
  %27 = and i32 %26, 255
  %28 = zext nneg i32 %27 to i64
  %29 = getelementptr inbounds nuw %union.StackValue, ptr %5, i64 %28
  %30 = getelementptr inbounds nuw i8, ptr %0, i64 16
  %31 = load ptr, ptr %30, align 8, !tbaa !8
  %32 = getelementptr inbounds i8, ptr %31, i64 -16
  store ptr %32, ptr %30, align 8, !tbaa !8
  %33 = load i64, ptr %32, align 8, !tbaa !8
  store i64 %33, ptr %29, align 8, !tbaa !8
  %34 = getelementptr inbounds i8, ptr %31, i64 -8
  %35 = load i8, ptr %34, align 8, !tbaa !4
  %36 = getelementptr inbounds nuw i8, ptr %29, i64 8
  store i8 %35, ptr %36, align 8, !tbaa !4
  br label %83

37:                                               ; preds = %1, %1, %1, %1, %1, %1, %1
  %38 = getelementptr inbounds nuw i8, ptr %0, i64 16
  %39 = load ptr, ptr %38, align 8, !tbaa !8
  %40 = getelementptr inbounds i8, ptr %39, i64 -8
  %41 = load i8, ptr %40, align 8, !tbaa !8
  %42 = icmp ne i8 %41, 1
  %43 = and i8 %41, 15
  %44 = icmp ne i8 %43, 0
  %narrow = and i1 %42, %44
  %45 = getelementptr inbounds i8, ptr %39, i64 -16
  store ptr %45, ptr %38, align 8, !tbaa !8
  %46 = and i32 %9, 32768
  %47 = icmp eq i32 %46, 0
  %.not = xor i1 %47, %narrow
  br i1 %.not, label %83, label %48

48:                                               ; preds = %37
  %49 = load ptr, ptr %6, align 8, !tbaa !8
  %50 = getelementptr inbounds nuw i8, ptr %49, i64 4
  store ptr %50, ptr %6, align 8, !tbaa !8
  br label %83

51:                                               ; preds = %1
  %52 = getelementptr inbounds nuw i8, ptr %0, i64 16
  %53 = load ptr, ptr %52, align 8, !tbaa !8
  %54 = getelementptr inbounds i8, ptr %53, i64 -16
  %55 = lshr i32 %9, 7
  %56 = and i32 %55, 255
  %57 = getelementptr inbounds i8, ptr %53, i64 -32
  %58 = zext nneg i32 %56 to i64
  %59 = getelementptr inbounds nuw %union.StackValue, ptr %5, i64 %58
  %60 = ptrtoint ptr %57 to i64
  %61 = ptrtoint ptr %59 to i64
  %62 = sub i64 %60, %61
  %63 = lshr exact i64 %62, 4
  %64 = trunc i64 %63 to i32
  %65 = getelementptr inbounds i8, ptr %53, i64 -48
  %66 = load i64, ptr %54, align 8, !tbaa !8
  store i64 %66, ptr %65, align 8, !tbaa !8
  %67 = getelementptr inbounds i8, ptr %53, i64 -8
  %68 = load i8, ptr %67, align 8, !tbaa !4
  %69 = getelementptr inbounds i8, ptr %53, i64 -40
  store i8 %68, ptr %69, align 8, !tbaa !4
  store ptr %57, ptr %52, align 8, !tbaa !8
  tail call void @luaV_concat(ptr noundef nonnull %0, i32 noundef %64)
  br label %83

70:                                               ; preds = %1
  store ptr %8, ptr %6, align 8, !tbaa !8
  br label %83

71:                                               ; preds = %1
  %72 = lshr i32 %9, 7
  %73 = and i32 %72, 255
  %74 = zext nneg i32 %73 to i64
  %75 = getelementptr inbounds nuw %union.StackValue, ptr %5, i64 %74
  %76 = getelementptr inbounds nuw i8, ptr %3, i64 56
  %77 = load i32, ptr %76, align 8, !tbaa !8
  %78 = sext i32 %77 to i64
  %79 = getelementptr inbounds %union.StackValue, ptr %75, i64 %78
  %80 = getelementptr inbounds nuw i8, ptr %0, i64 16
  store ptr %79, ptr %80, align 8, !tbaa !8
  %81 = load ptr, ptr %6, align 8, !tbaa !8
  %82 = getelementptr inbounds i8, ptr %81, i64 -4
  store ptr %82, ptr %6, align 8, !tbaa !8
  br label %83

83:                                               ; preds = %37, %48, %1, %71, %70, %51, %25, %11
  ret void
}